; Function Attrs: mustprogress uwtable
define void @_ZN4cvc58internal24IllegalArgumentException9constructEPKcS3_S3_S3_(ptr noundef nonnull align 8 dereferenceable(40) %this, ptr noundef %header, ptr noundef %extra, ptr noundef %function, ptr noundef %tail) local_unnamed_addr #0 align 2 personality ptr @__gxx_personality_v0 {
entry:
  %ref.tmp = alloca %"class.std::__cxx11::basic_string", align 8
  %ref.tmp10 = alloca %"class.std::allocator", align 1
  %cmp = icmp eq ptr %extra, null
  %call.us22 = tail call noalias noundef nonnull dereferenceable(512) ptr @_Znam(i64 noundef 512) #18
  br i1 %cmp, label %entry.split.us, label %entry.split

entry.split.us:                                   ; preds = %entry
  %call3.us23 = tail call i32 (ptr, i64, ptr, ...) @snprintf(ptr noundef nonnull dereferenceable(1) %call.us22, i64 noundef 512, ptr noundef nonnull @.str.5, ptr noundef %header, ptr noundef %function, ptr noundef %tail) #16
  %cmp6.us24 = icmp slt i32 %call3.us23, 512
  br i1 %cmp6.us24, label %for.end, label %if.else8.us

if.else8.us:                                      ; preds = %entry.split.us, %if.else8.us
  %call3.us26 = phi i32 [ %call3.us, %if.else8.us ], [ %call3.us23, %entry.split.us ]
  %call.us25 = phi ptr [ %call.us, %if.else8.us ], [ %call.us22, %entry.split.us ]
  %add.us = add nuw nsw i32 %call3.us26, 1
  tail call void @_ZdaPv(ptr noundef nonnull %call.us25) #17
  %conv.us = zext nneg i32 %add.us to i64
  %call.us = tail call noalias noundef nonnull ptr @_Znam(i64 noundef %conv.us) #18
  %call3.us = tail call i32 (ptr, i64, ptr, ...) @snprintf(ptr noundef nonnull dereferenceable(1) %call.us, i64 noundef %conv.us, ptr noundef nonnull @.str.5, ptr noundef %header, ptr noundef %function, ptr noundef %tail) #16
  %cmp6.us.not = icmp sgt i32 %call3.us, %call3.us26
  br i1 %cmp6.us.not, label %if.else8.us, label %for.end, !llvm.loop !9

entry.split:                                      ; preds = %entry
  %call518 = tail call i32 (ptr, i64, ptr, ...) @snprintf(ptr noundef nonnull dereferenceable(1) %call.us22, i64 noundef 512, ptr noundef nonnull @.str.6, ptr noundef %header, ptr noundef %function, ptr noundef nonnull %extra, ptr noundef %tail) #16
  %cmp619 = icmp slt i32 %call518, 512
  br i1 %cmp619, label %for.end, label %if.else8

if.else8:                                         ; preds = %entry.split, %if.else8
  %call521 = phi i32 [ %call5, %if.else8 ], [ %call518, %entry.split ]
  %call20 = phi ptr [ %call, %if.else8 ], [ %call.us22, %entry.split ]
  %add = add nuw nsw i32 %call521, 1
  tail call void @_ZdaPv(ptr noundef nonnull %call20) #17
  %conv = zext nneg i32 %add to i64
  %call = tail call noalias noundef nonnull ptr @_Znam(i64 noundef %conv) #18
  %call5 = tail call i32 (ptr, i64, ptr, ...) @snprintf(ptr noundef nonnull dereferenceable(1) %call, i64 noundef %conv, ptr noundef nonnull @.str.6, ptr noundef %header, ptr noundef %function, ptr noundef nonnull %extra, ptr noundef %tail) #16
  %cmp6.not = icmp sgt i32 %call5, %call521
  br i1 %cmp6.not, label %if.else8, label %for.end, !llvm.loop !9

for.end:                                          ; preds = %if.else8, %if.else8.us, %entry.split, %entry.split.us
  %.us-phi = phi ptr [ %call.us22, %entry.split.us ], [ %call.us22, %entry.split ], [ %call.us, %if.else8.us ], [ %call, %if.else8 ]
  call void @_ZNSaIcEC1Ev(ptr noundef nonnull align 1 dereferenceable(1) %ref.tmp10) #16
  %call.i14 = invoke noundef ptr @_ZNSt7__cxx1112basic_stringIcSt11char_traitsIcESaIcEE13_M_local_dataEv(ptr noundef nonnull align 8 dereferenceable(32) %ref.tmp)
          to label %call.i.noexc unwind label %lpad

call.i.noexc:                                     ; preds = %for.end
  invoke void @_ZNSt7__cxx1112basic_stringIcSt11char_traitsIcESaIcEE12_Alloc_hiderC1EPcRKS3_(ptr noundef nonnull align 8 dereferenceable(8) %ref.tmp, ptr noundef %call.i14, ptr noundef nonnull align 1 dereferenceable(1) %ref.tmp10)
          to label %.noexc unwind label %lpad

.noexc:                                           ; preds = %call.i.noexc
  %call.i.i = call noundef i64 @strlen(ptr noundef nonnull dereferenceable(1) %.us-phi) #16
  %add.ptr.i = getelementptr inbounds i8, ptr %.us-phi, i64 %call.i.i
  invoke void @_ZNSt7__cxx1112basic_stringIcSt11char_traitsIcESaIcEE12_M_constructIPKcEEvT_S8_St20forward_iterator_tag(ptr noundef nonnull align 8 dereferenceable(32) %ref.tmp, ptr noundef nonnull %.us-phi, ptr noundef nonnull %add.ptr.i)
          to label %invoke.cont unwind label %lpad.i

lpad.i:                                           ; preds = %.noexc
  %0 = landingpad { ptr, i32 }
          cleanup
  call void @_ZNSaIcED2Ev(ptr noundef nonnull align 1 dereferenceable(1) %ref.tmp) #16
  br label %ehcleanup

invoke.cont:                                      ; preds = %.noexc
  %d_msg.i = getelementptr inbounds i8, ptr %this, i64 8
  %call.i16 = invoke noundef nonnull align 8 dereferenceable(32) ptr @_ZNSt7__cxx1112basic_stringIcSt11char_traitsIcESaIcEEaSERKS4_(ptr noundef nonnull align 8 dereferenceable(32) %d_msg.i, ptr noundef nonnull align 8 dereferenceable(32) %ref.tmp)
          to label %invoke.cont12 unwind label %lpad11

invoke.cont12:                                    ; preds = %invoke.cont
  call void @_ZNSt7__cxx1112basic_stringIcSt11char_traitsIcESaIcEED1Ev(ptr noundef nonnull align 8 dereferenceable(32) %ref.tmp) #16
  call void @_ZNSaIcED1Ev(ptr noundef nonnull align 1 dereferenceable(1) %ref.tmp10) #16
  call void @_ZdaPv(ptr noundef nonnull %.us-phi) #17
  ret void

lpad:                                             ; preds = %call.i.noexc, %for.end
  %1 = landingpad { ptr, i32 }
          cleanup
  br label %ehcleanup

lpad11:                                           ; preds = %invoke.cont
  %2 = landingpad { ptr, i32 }
          cleanup
  call void @_ZNSt7__cxx1112basic_stringIcSt11char_traitsIcESaIcEED1Ev(ptr noundef nonnull align 8 dereferenceable(32) %ref.tmp) #16
  br label %ehcleanup

ehcleanup:                                        ; preds = %lpad, %lpad.i, %lpad11
  %.pn = phi { ptr, i32 } [ %2, %lpad11 ], [ %1, %lpad ], [ %0, %lpad.i ]
  call void @_ZNSaIcED1Ev(ptr noundef nonnull align 1 dereferenceable(1) %ref.tmp10) #16
  resume { ptr, i32 } %.pn
}